target datalayout = "e-m:e-p270:32:32-p271:32:32-p272:64:64-i64:64-i128:128-f80:128-n8:16:32:64-S128"
target triple = "x86_64-pc-linux-gnu"

%struct.wl_list = type { ptr, ptr }
%struct.SDL_WaylandPenTool = type { i32, %struct.SDL_PenInfo, ptr, ptr, float, float, i8, [7 x float], i32, i32, [3 x i32], %struct.wl_list }
%struct.SDL_PenInfo = type { i32, float, i32, i32, i32 }

; Function Attrs: nounwind uwtable
define internal void @tablet_tool_handle_capability(ptr noundef %0, ptr noundef %1, i32 noundef %2) #0 {
  %4 = alloca ptr, align 8
  %5 = alloca ptr, align 8
  %6 = alloca i32, align 4
  %7 = alloca ptr, align 8
  %8 = alloca i32, align 4
  store ptr %0, ptr %4, align 8
  store ptr %1, ptr %5, align 8
  store i32 %2, ptr %6, align 4
  call void @llvm.lifetime.start.p0(i64 8, ptr %7) #10
  %9 = load ptr, ptr %4, align 8
  store ptr %9, ptr %7, align 8
  %10 = load i32, ptr %6, align 4
  switch i32 %10, label %41 [
    i32 1, label %11
    i32 2, label %17
    i32 3, label %23
    i32 4, label %29
    i32 5, label %35
  ]

11:                                               ; preds = %3
  %12 = load ptr, ptr %7, align 8
  %13 = getelementptr inbounds nuw %struct.SDL_WaylandPenTool, ptr %12, i32 0, i32 1
  %14 = getelementptr inbounds nuw %struct.SDL_PenInfo, ptr %13, i32 0, i32 0
  %15 = load i32, ptr %14, align 4
  %16 = or i32 %15, 6
  store i32 %16, ptr %14, align 4
  store i32 1, ptr %8, align 4
  br label %43

17:                                               ; preds = %3
  %18 = load ptr, ptr %7, align 8
  %19 = getelementptr inbounds nuw %struct.SDL_WaylandPenTool, ptr %18, i32 0, i32 1
  %20 = getelementptr inbounds nuw %struct.SDL_PenInfo, ptr %19, i32 0, i32 0
  %21 = load i32, ptr %20, align 4
  %22 = or i32 %21, 1
  store i32 %22, ptr %20, align 4
  store i32 1, ptr %8, align 4
  br label %43

23:                                               ; preds = %3
  %24 = load ptr, ptr %7, align 8
  %25 = getelementptr inbounds nuw %struct.SDL_WaylandPenTool, ptr %24, i32 0, i32 1
  %26 = getelementptr inbounds nuw %struct.SDL_PenInfo, ptr %25, i32 0, i32 0
  %27 = load i32, ptr %26, align 4
  %28 = or i32 %27, 8
  store i32 %28, ptr %26, align 4
  store i32 1, ptr %8, align 4
  br label %43

29:                                               ; preds = %3
  %30 = load ptr, ptr %7, align 8
  %31 = getelementptr inbounds nuw %struct.SDL_WaylandPenTool, ptr %30, i32 0, i32 1
  %32 = getelementptr inbounds nuw %struct.SDL_PenInfo, ptr %31, i32 0, i32 0
  %33 = load i32, ptr %32, align 4
  %34 = or i32 %33, 16
  store i32 %34, ptr %32, align 4
  store i32 1, ptr %8, align 4
  br label %43

35:                                               ; preds = %3
  %36 = load ptr, ptr %7, align 8
  %37 = getelementptr inbounds nuw %struct.SDL_WaylandPenTool, ptr %36, i32 0, i32 1
  %38 = getelementptr inbounds nuw %struct.SDL_PenInfo, ptr %37, i32 0, i32 0
  %39 = load i32, ptr %38, align 4
  %40 = or i32 %39, 32
  store i32 %40, ptr %38, align 4
  store i32 1, ptr %8, align 4
  br label %43

41:                                               ; preds = %3
  br label %42

42:                                               ; preds = %41
  store i32 0, ptr %8, align 4
  br label %43

43:                                               ; preds = %42, %35, %29, %23, %17, %11
  call void @llvm.lifetime.end.p0(i64 8, ptr %7) #10
  %44 = load i32, ptr %8, align 4
  switch i32 %44, label %46 [
    i32 0, label %45
    i32 1, label %45
  ]

45:                                               ; preds = %43, %43
  ret void

46:                                               ; preds = %43
  unreachable
}