; Function Attrs: mustprogress nofree norecurse nosync nounwind willreturn memory(argmem: readwrite) uwtable
define internal void @tablet_tool_handle_capability(ptr noundef captures(none) %0, ptr readnone captures(none) %1, i32 noundef %2) #8 {
  %switch.tableidx = add i32 %2, -1
  %4 = icmp ult i32 %switch.tableidx, 5
  br i1 %4, label %switch.lookup, label %9

switch.lookup:                                    ; preds = %3
  %5 = zext nneg i32 %switch.tableidx to i64
  %switch.gep = getelementptr inbounds nuw [5 x i32], ptr @switch.table.tablet_tool_handle_capability, i64 0, i64 %5
  %switch.load = load i32, ptr %switch.gep, align 4
  %6 = getelementptr inbounds nuw i8, ptr %0, i64 4
  %7 = load i32, ptr %6, align 4
  %8 = or i32 %7, %switch.load
  store i32 %8, ptr %6, align 4
  br label %9

9:                                                ; preds = %3, %switch.lookup
  ret void
}